; Function Attrs: null_pointer_is_valid sspstrong uwtable
define internal i32 @dissect_lpp_T_reportingInterval(ptr noundef %0, i32 noundef %1, ptr noundef %2, ptr noundef %3, i32 noundef %4) #0 {
  %6 = alloca i32, align 4
  call void @llvm.lifetime.start.p0(i64 4, ptr nonnull %6) #10
  %7 = call i32 @dissect_per_enumerated(ptr noundef %0, i32 noundef %1, ptr noundef %2, ptr noundef %3, i32 noundef %4, i32 noundef 10, ptr noundef nonnull %6, i1 noundef zeroext false, i32 noundef 0, ptr noundef null)
  %8 = load i32, ptr %6, align 4
  %9 = icmp ult i32 %8, 10
  br i1 %9, label %10, label %16

10:                                               ; preds = %5
  %11 = getelementptr inbounds nuw i8, ptr %2, i64 24
  %12 = load ptr, ptr %11, align 8
  %13 = zext nneg i32 %8 to i64
  %14 = getelementptr [10 x ptr], ptr @__const.dissect_lpp_T_reportingInterval.interval, i64 0, i64 %13
  %15 = load ptr, ptr %14, align 8
  call void (ptr, ptr, ...) @proto_item_append_text(ptr noundef %12, ptr noundef nonnull @.str.8431, ptr noundef %15)
  br label %16

16:                                               ; preds = %10, %5
  call void @llvm.lifetime.end.p0(i64 4, ptr nonnull %6) #10
  ret i32 %7
}